; Function Attrs: mustprogress uwtable
define noundef zeroext i1 @_ZN3g2o21ParameterStereoCamera4readERSi(ptr noundef nonnull align 16 dereferenceable(496) %0, ptr noundef nonnull align 8 dereferenceable(16) %1) unnamed_addr #4 align 2 {
  %3 = tail call noundef zeroext i1 @_ZN3g2o15ParameterCamera4readERSi(ptr noundef nonnull align 16 dereferenceable(488) %0, ptr noundef nonnull align 8 dereferenceable(16) %1)
  %4 = getelementptr inbounds nuw i8, ptr %0, i64 488
  %5 = tail call noundef nonnull align 8 dereferenceable(16) ptr @_ZNSi10_M_extractIdEERSiRT_(ptr noundef nonnull align 8 dereferenceable(16) %1, ptr noundef nonnull align 8 dereferenceable(8) %4)
  %6 = load ptr, ptr %1, align 8, !tbaa !3
  %7 = getelementptr i8, ptr %6, i64 -24
  %8 = load i64, ptr %7, align 8
  %9 = getelementptr inbounds i8, ptr %1, i64 %8
  %10 = getelementptr inbounds nuw i8, ptr %9, i64 32
  %11 = load i32, ptr %10, align 8, !tbaa !24
  %12 = icmp eq i32 %11, 0
  %13 = and i1 %3, %12
  ret i1 %13
}